; Function Attrs: mustprogress uwtable
define i32 @u_vfprintf_u_77(ptr noundef %0, ptr noundef %1, ptr noundef %2) local_unnamed_addr #0 {
  %4 = alloca i32, align 4
  call void @llvm.lifetime.start.p0(i64 4, ptr nonnull %4) #6
  store i32 0, ptr %4, align 4, !tbaa !10
  %5 = getelementptr inbounds nuw i8, ptr %0, i64 48
  %6 = call i32 @u_printf_parse_77(ptr noundef nonnull @_ZL16g_stream_handler, ptr noundef %1, ptr noundef %0, ptr noundef null, ptr noundef nonnull %5, ptr noundef nonnull %4, ptr noundef %2)
  %7 = load i32, ptr %4, align 4, !tbaa !10
  call void @llvm.lifetime.end.p0(i64 4, ptr nonnull %4) #6
  ret i32 %7
}